; ModuleID = 'source-C-CXX/39/2874.c'
source_filename = "source-C-CXX/39/2874.c"
target datalayout = "e-m:e-p270:32:32-p271:32:32-p272:64:64-i64:64-f80:128-n8:16:32:64-S128"
target triple = "x86_64-pc-linux-gnu"

@.str = private unnamed_addr constant [20 x i8] c"%lf\0A%lf\0A%lf\0A%lf\0A%lf\00", align 1
@.str.1 = private unnamed_addr constant [14 x i8] c"Invalid input\00", align 1
@.str.2 = private unnamed_addr constant [6 x i8] c"%.4lf\00", align 1

; Function Attrs: nofree nounwind sspstrong uwtable
define dso_local i32 @main() local_unnamed_addr #0 {
  %1 = alloca double, align 8
  %2 = alloca double, align 8
  %3 = alloca double, align 8
  %4 = alloca double, align 8
  %5 = alloca double, align 8
  %6 = bitcast double* %1 to i8*
  call void @llvm.lifetime.start.p0i8(i64 8, i8* nonnull %6) #5
  %7 = bitcast double* %2 to i8*
  call void @llvm.lifetime.start.p0i8(i64 8, i8* nonnull %7) #5
  %8 = bitcast double* %3 to i8*
  call void @llvm.lifetime.start.p0i8(i64 8, i8* nonnull %8) #5
  %9 = bitcast double* %4 to i8*
  call void @llvm.lifetime.start.p0i8(i64 8, i8* nonnull %9) #5
  %10 = bitcast double* %5 to i8*
  call void @llvm.lifetime.start.p0i8(i64 8, i8* nonnull %10) #5
  %11 = call i32 (i8*, ...) @__isoc99_scanf(i8* getelementptr inbounds ([20 x i8], [20 x i8]* @.str, i64 0, i64 0), double* nonnull %1, double* nonnull %2, double* nonnull %3, double* nonnull %4, double* nonnull %5)
  %12 = load double, double* %1, align 8, !tbaa !5
  %13 = load double, double* %2, align 8, !tbaa !5
  %14 = load double, double* %3, align 8, !tbaa !5
  %15 = load double, double* %4, align 8, !tbaa !5
  %16 = load double, double* %5, align 8, !tbaa !5
  %17 = fadd double %12, %13
  %18 = fadd double %17, %14
  %19 = fadd double %18, %15
  %20 = fmul double %19, 5.000000e-01
  %21 = fmul double %12, %13
  %22 = fmul double %21, %14
  %23 = fmul double %22, %15
  %24 = fmul double %16, 3.140000e+00
  %25 = fdiv double %24, 3.600000e+02
  %26 = call double @cos(double %25) #5
  %27 = fmul double %23, %26
  %28 = call double @cos(double %25) #5
  %29 = fmul double %27, %28
  %30 = fsub double %20, %12
  %31 = fsub double %20, %13
  %32 = fmul double %30, %31
  %33 = fsub double %20, %14
  %34 = fmul double %33, %32
  %35 = fsub double %20, %15
  %36 = fmul double %35, %34
  %37 = fcmp ogt double %29, %36
  br i1 %37, label %46, label %38

38:                                               ; preds = %0
  %39 = call double @cos(double %25) #5
  %40 = fmul double %23, %39
  %41 = call double @cos(double %25) #5
  %42 = fmul double %40, %41
  %43 = fsub double %36, %42
  %44 = call double @sqrt(double %43) #5
  %45 = fcmp oeq double %44, -1.000000e+00
  br i1 %45, label %46, label %48

46:                                               ; preds = %0, %38
  %47 = call i32 (i8*, ...) @printf(i8* nonnull dereferenceable(1) getelementptr inbounds ([14 x i8], [14 x i8]* @.str.1, i64 0, i64 0))
  br label %50

48:                                               ; preds = %38
  %49 = call i32 (i8*, ...) @printf(i8* nonnull dereferenceable(1) getelementptr inbounds ([6 x i8], [6 x i8]* @.str.2, i64 0, i64 0), double %44)
  br label %50

50:                                               ; preds = %48, %46
  call void @llvm.lifetime.end.p0i8(i64 8, i8* nonnull %10) #5
  call void @llvm.lifetime.end.p0i8(i64 8, i8* nonnull %9) #5
  call void @llvm.lifetime.end.p0i8(i64 8, i8* nonnull %8) #5
  call void @llvm.lifetime.end.p0i8(i64 8, i8* nonnull %7) #5
  call void @llvm.lifetime.end.p0i8(i64 8, i8* nonnull %6) #5
  ret i32 0
}

; Function Attrs: argmemonly mustprogress nofree nosync nounwind willreturn
declare void @llvm.lifetime.start.p0i8(i64 immarg, i8* nocapture) #1

; Function Attrs: nofree nounwind
declare noundef i32 @__isoc99_scanf(i8* nocapture noundef readonly, ...) local_unnamed_addr #2

; Function Attrs: mustprogress nofree nounwind sspstrong uwtable willreturn
define dso_local double @f(double %0, double %1, double %2, double %3, double %4) local_unnamed_addr #3 {
  %6 = fadd double %0, %1
  %7 = fadd double %6, %2
  %8 = fadd double %7, %3
  %9 = fmul double %8, 5.000000e-01
  %10 = fmul double %0, %1
  %11 = fmul double %10, %2
  %12 = fmul double %11, %3
  %13 = fmul double %4, 3.140000e+00
  %14 = fdiv double %13, 3.600000e+02
  %15 = tail call double @cos(double %14) #5
  %16 = fmul double %12, %15
  %17 = tail call double @cos(double %14) #5
  %18 = fmul double %16, %17
  %19 = fsub double %9, %0
  %20 = fsub double %9, %1
  %21 = fmul double %19, %20
  %22 = fsub double %9, %2
  %23 = fmul double %22, %21
  %24 = fsub double %9, %3
  %25 = fmul double %24, %23
  %26 = fcmp ogt double %18, %25
  br i1 %26, label %34, label %27

27:                                               ; preds = %5
  %28 = tail call double @cos(double %14) #5
  %29 = fmul double %12, %28
  %30 = tail call double @cos(double %14) #5
  %31 = fmul double %29, %30
  %32 = fsub double %25, %31
  %33 = tail call double @sqrt(double %32) #5
  br label %34

34:                                               ; preds = %5, %27
  %35 = phi double [ %33, %27 ], [ -1.000000e+00, %5 ]
  ret double %35
}

; Function Attrs: nofree nounwind
declare noundef i32 @printf(i8* nocapture noundef readonly, ...) local_unnamed_addr #2

; Function Attrs: argmemonly mustprogress nofree nosync nounwind willreturn
declare void @llvm.lifetime.end.p0i8(i64 immarg, i8* nocapture) #1

; Function Attrs: mustprogress nofree nounwind willreturn
declare double @cos(double) local_unnamed_addr #4

; Function Attrs: mustprogress nofree nounwind willreturn
declare double @sqrt(double) local_unnamed_addr #4


!llvm.module.flags = !{!0, !1, !2, !3}
!llvm.ident = !{!4}

!0 = !{i32 1, !"wchar_size", i32 4}
!1 = !{i32 7, !"PIC Level", i32 2}
!2 = !{i32 7, !"PIE Level", i32 2}
!3 = !{i32 7, !"uwtable", i32 1}
!4 = !{!"clang version 13.0.0"}
!5 = !{!6, !6, i64 0}
!6 = !{!"double", !7, i64 0}
!7 = !{!"omnipotent char", !8, i64 0}
!8 = !{!"Simple C/C++ TBAA"}
